; ModuleID = '11/646.c'
source_filename = "11/646.c"
target datalayout = "e-m:e-p270:32:32-p271:32:32-p272:64:64-i64:64-f80:128-n8:16:32:64-S128"
target triple = "x86_64-pc-linux-gnu"

@__const.main.dayofmonth1 = private unnamed_addr constant [12 x i32] [i32 31, i32 28, i32 31, i32 30, i32 31, i32 30, i32 31, i32 31, i32 30, i32 31, i32 30, i32 31], align 16
@__const.main.dayofmonth2 = private unnamed_addr constant [12 x i32] [i32 31, i32 29, i32 31, i32 30, i32 31, i32 30, i32 31, i32 31, i32 30, i32 31, i32 30, i32 31], align 16
@.str = private unnamed_addr constant [7 x i8] c"%d%d%d\00", align 1
@.str.1 = private unnamed_addr constant [3 x i8] c"%d\00", align 1

; Function Attrs: noinline nounwind uwtable
define dso_local i32 @main() #0 {
  %1 = alloca i32, align 4
  %2 = alloca i32, align 4
  %3 = alloca i32, align 4
  %4 = alloca i32, align 4
  %5 = alloca i32, align 4
  %6 = alloca i32, align 4
  %7 = alloca [12 x i32], align 16
  %8 = alloca [12 x i32], align 16
  store i32 0, i32* %1, align 4
  store i32 0, i32* %6, align 4
  %9 = bitcast [12 x i32]* %7 to i8*
  call void @llvm.memcpy.p0i8.p0i8.i64(i8* align 16 %9, i8* align 16 bitcast ([12 x i32]* @__const.main.dayofmonth1 to i8*), i64 48, i1 false)
  %10 = bitcast [12 x i32]* %8 to i8*
  call void @llvm.memcpy.p0i8.p0i8.i64(i8* align 16 %10, i8* align 16 bitcast ([12 x i32]* @__const.main.dayofmonth2 to i8*), i64 48, i1 false)
  %11 = call i32 (i8*, ...) @__isoc99_scanf(i8* getelementptr inbounds ([7 x i8], [7 x i8]* @.str, i64 0, i64 0), i32* %3, i32* %4, i32* %5)
  %12 = load i32, i32* %3, align 4
  %13 = srem i32 %12, 4
  %14 = icmp ne i32 %13, 0
  br i1 %14, label %23, label %15

15:                                               ; preds = %0
  %16 = load i32, i32* %3, align 4
  %17 = srem i32 %16, 100
  %18 = icmp eq i32 %17, 0
  br i1 %18, label %19, label %45

19:                                               ; preds = %15
  %20 = load i32, i32* %3, align 4
  %21 = srem i32 %20, 400
  %22 = icmp ne i32 %21, 0
  br i1 %22, label %23, label %45

23:                                               ; preds = %19, %0
  store i32 0, i32* %2, align 4
  br label %24

24:                                               ; preds = %36, %23
  %25 = load i32, i32* %2, align 4
  %26 = load i32, i32* %4, align 4
  %27 = sub nsw i32 %26, 1
  %28 = icmp slt i32 %25, %27
  br i1 %28, label %29, label %39

29:                                               ; preds = %24
  %30 = load i32, i32* %2, align 4
  %31 = sext i32 %30 to i64
  %32 = getelementptr inbounds [12 x i32], [12 x i32]* %7, i64 0, i64 %31
  %33 = load i32, i32* %32, align 4
  %34 = load i32, i32* %6, align 4
  %35 = add nsw i32 %34, %33
  store i32 %35, i32* %6, align 4
  br label %36

36:                                               ; preds = %29
  %37 = load i32, i32* %2, align 4
  %38 = add nsw i32 %37, 1
  store i32 %38, i32* %2, align 4
  br label %24

39:                                               ; preds = %24
  %40 = load i32, i32* %6, align 4
  %41 = load i32, i32* %5, align 4
  %42 = add nsw i32 %40, %41
  store i32 %42, i32* %6, align 4
  %43 = load i32, i32* %6, align 4
  %44 = call i32 (i8*, ...) @printf(i8* getelementptr inbounds ([3 x i8], [3 x i8]* @.str.1, i64 0, i64 0), i32 %43)
  br label %80

45:                                               ; preds = %19, %15
  %46 = load i32, i32* %3, align 4
  %47 = srem i32 %46, 4
  %48 = icmp eq i32 %47, 0
  br i1 %48, label %49, label %53

49:                                               ; preds = %45
  %50 = load i32, i32* %3, align 4
  %51 = srem i32 %50, 100
  %52 = icmp ne i32 %51, 0
  br i1 %52, label %57, label %53

53:                                               ; preds = %49, %45
  %54 = load i32, i32* %3, align 4
  %55 = srem i32 %54, 400
  %56 = icmp eq i32 %55, 0
  br i1 %56, label %57, label %79

57:                                               ; preds = %53, %49
  store i32 0, i32* %2, align 4
  br label %58

58:                                               ; preds = %70, %57
  %59 = load i32, i32* %2, align 4
  %60 = load i32, i32* %4, align 4
  %61 = sub nsw i32 %60, 1
  %62 = icmp slt i32 %59, %61
  br i1 %62, label %63, label %73

63:                                               ; preds = %58
  %64 = load i32, i32* %2, align 4
  %65 = sext i32 %64 to i64
  %66 = getelementptr inbounds [12 x i32], [12 x i32]* %8, i64 0, i64 %65
  %67 = load i32, i32* %66, align 4
  %68 = load i32, i32* %6, align 4
  %69 = add nsw i32 %68, %67
  store i32 %69, i32* %6, align 4
  br label %70

70:                                               ; preds = %63
  %71 = load i32, i32* %2, align 4
  %72 = add nsw i32 %71, 1
  store i32 %72, i32* %2, align 4
  br label %58

73:                                               ; preds = %58
  %74 = load i32, i32* %6, align 4
  %75 = load i32, i32* %5, align 4
  %76 = add nsw i32 %74, %75
  store i32 %76, i32* %6, align 4
  %77 = load i32, i32* %6, align 4
  %78 = call i32 (i8*, ...) @printf(i8* getelementptr inbounds ([3 x i8], [3 x i8]* @.str.1, i64 0, i64 0), i32 %77)
  br label %79

79:                                               ; preds = %73, %53
  br label %80

80:                                               ; preds = %79, %39
  ret i32 0
}

; Function Attrs: argmemonly nounwind willreturn
declare void @llvm.memcpy.p0i8.p0i8.i64(i8* noalias nocapture writeonly, i8* noalias nocapture readonly, i64, i1 immarg) #1

declare dso_local i32 @__isoc99_scanf(i8*, ...) #2

declare dso_local i32 @printf(i8*, ...) #2


!llvm.module.flags = !{!0}
!llvm.ident = !{!1}

!0 = !{i32 1, !"wchar_size", i32 4}
!1 = !{!"clang version 10.0.0-4ubuntu1 "}
